target datalayout = "e-m:e-p270:32:32-p271:32:32-p272:64:64-i64:64-i128:128-f80:128-n8:16:32:64-S128"
target triple = "x86_64-pc-linux-gnu"

%class.Draw = type { i8, ptr, ptr, ptr, ptr, ptr, ptr, ptr, ptr, %struct.b2DebugDraw, ptr, ptr, ptr, ptr }
%struct.b2DebugDraw = type { ptr, ptr, ptr, ptr, ptr, ptr, ptr, ptr, ptr, %struct.b2AABB, i8, i8, i8, i8, i8, i8, i8, i8, i8, i8, i8, i8, ptr }
%struct.b2AABB = type { %struct.b2Vec2, %struct.b2Vec2 }
%struct.b2Vec2 = type { float, float }

; Function Attrs: mustprogress uwtable
define dso_local void @_ZN4Draw8DrawAABBE6b2AABB10b2HexColor(ptr noundef nonnull align 8 dereferenceable(216) %0, <2 x float> %1, <2 x float> %2, i32 noundef %3) #6 align 2 {
  %5 = alloca %struct.b2AABB, align 4
  %6 = alloca ptr, align 8
  %7 = alloca i32, align 4
  %8 = alloca %struct.b2Vec2, align 4
  %9 = alloca %struct.b2Vec2, align 4
  %10 = alloca %struct.b2Vec2, align 4
  %11 = alloca %struct.b2Vec2, align 4
  %12 = alloca %struct.b2Vec2, align 4
  %13 = alloca %struct.b2Vec2, align 4
  %14 = alloca %struct.b2Vec2, align 4
  %15 = alloca %struct.b2Vec2, align 4
  %16 = alloca %struct.b2Vec2, align 4
  %17 = alloca %struct.b2Vec2, align 4
  %18 = alloca %struct.b2Vec2, align 4
  %19 = alloca %struct.b2Vec2, align 4
  %20 = getelementptr inbounds nuw { <2 x float>, <2 x float> }, ptr %5, i32 0, i32 0
  store <2 x float> %1, ptr %20, align 4
  %21 = getelementptr inbounds nuw { <2 x float>, <2 x float> }, ptr %5, i32 0, i32 1
  store <2 x float> %2, ptr %21, align 4
  store ptr %0, ptr %6, align 8, !tbaa !30
  store i32 %3, ptr %7, align 4, !tbaa !27
  %22 = load ptr, ptr %6, align 8
  call void @llvm.lifetime.start.p0(i64 8, ptr %8) #1
  %23 = getelementptr inbounds nuw %struct.b2AABB, ptr %5, i32 0, i32 0
  call void @llvm.memcpy.p0.p0.i64(ptr align 4 %8, ptr align 4 %23, i64 8, i1 false), !tbaa.struct !17
  call void @llvm.lifetime.start.p0(i64 8, ptr %9) #1
  %24 = getelementptr inbounds nuw %struct.b2Vec2, ptr %9, i32 0, i32 0
  %25 = getelementptr inbounds nuw %struct.b2AABB, ptr %5, i32 0, i32 1
  %26 = getelementptr inbounds nuw %struct.b2Vec2, ptr %25, i32 0, i32 0
  %27 = load float, ptr %26, align 4, !tbaa !199
  store float %27, ptr %24, align 4, !tbaa !15
  %28 = getelementptr inbounds nuw %struct.b2Vec2, ptr %9, i32 0, i32 1
  %29 = getelementptr inbounds nuw %struct.b2AABB, ptr %5, i32 0, i32 0
  %30 = getelementptr inbounds nuw %struct.b2Vec2, ptr %29, i32 0, i32 1
  %31 = load float, ptr %30, align 4, !tbaa !200
  store float %31, ptr %28, align 4, !tbaa !16
  call void @llvm.lifetime.start.p0(i64 8, ptr %10) #1
  %32 = getelementptr inbounds nuw %struct.b2AABB, ptr %5, i32 0, i32 1
  call void @llvm.memcpy.p0.p0.i64(ptr align 4 %10, ptr align 4 %32, i64 8, i1 false), !tbaa.struct !17
  call void @llvm.lifetime.start.p0(i64 8, ptr %11) #1
  %33 = getelementptr inbounds nuw %struct.b2Vec2, ptr %11, i32 0, i32 0
  %34 = getelementptr inbounds nuw %struct.b2AABB, ptr %5, i32 0, i32 0
  %35 = getelementptr inbounds nuw %struct.b2Vec2, ptr %34, i32 0, i32 0
  %36 = load float, ptr %35, align 4, !tbaa !201
  store float %36, ptr %33, align 4, !tbaa !15
  %37 = getelementptr inbounds nuw %struct.b2Vec2, ptr %11, i32 0, i32 1
  %38 = getelementptr inbounds nuw %struct.b2AABB, ptr %5, i32 0, i32 1
  %39 = getelementptr inbounds nuw %struct.b2Vec2, ptr %38, i32 0, i32 1
  %40 = load float, ptr %39, align 4, !tbaa !202
  store float %40, ptr %37, align 4, !tbaa !16
  %41 = getelementptr inbounds nuw %class.Draw, ptr %22, i32 0, i32 3
  %42 = load ptr, ptr %41, align 8, !tbaa !32
  call void @llvm.memcpy.p0.p0.i64(ptr align 4 %12, ptr align 4 %8, i64 8, i1 false), !tbaa.struct !17
  call void @llvm.memcpy.p0.p0.i64(ptr align 4 %13, ptr align 4 %9, i64 8, i1 false), !tbaa.struct !17
  %43 = load i32, ptr %7, align 4, !tbaa !27
  %44 = load <2 x float>, ptr %12, align 4
  %45 = load <2 x float>, ptr %13, align 4
  call void @_ZN7GLLines7AddLineE6b2Vec2S0_10b2HexColor(ptr noundef nonnull align 8 dereferenceable(40) %42, <2 x float> %44, <2 x float> %45, i32 noundef %43)
  %46 = getelementptr inbounds nuw %class.Draw, ptr %22, i32 0, i32 3
  %47 = load ptr, ptr %46, align 8, !tbaa !32
  call void @llvm.memcpy.p0.p0.i64(ptr align 4 %14, ptr align 4 %9, i64 8, i1 false), !tbaa.struct !17
  call void @llvm.memcpy.p0.p0.i64(ptr align 4 %15, ptr align 4 %10, i64 8, i1 false), !tbaa.struct !17
  %48 = load i32, ptr %7, align 4, !tbaa !27
  %49 = load <2 x float>, ptr %14, align 4
  %50 = load <2 x float>, ptr %15, align 4
  call void @_ZN7GLLines7AddLineE6b2Vec2S0_10b2HexColor(ptr noundef nonnull align 8 dereferenceable(40) %47, <2 x float> %49, <2 x float> %50, i32 noundef %48)
  %51 = getelementptr inbounds nuw %class.Draw, ptr %22, i32 0, i32 3
  %52 = load ptr, ptr %51, align 8, !tbaa !32
  call void @llvm.memcpy.p0.p0.i64(ptr align 4 %16, ptr align 4 %10, i64 8, i1 false), !tbaa.struct !17
  call void @llvm.memcpy.p0.p0.i64(ptr align 4 %17, ptr align 4 %11, i64 8, i1 false), !tbaa.struct !17
  %53 = load i32, ptr %7, align 4, !tbaa !27
  %54 = load <2 x float>, ptr %16, align 4
  %55 = load <2 x float>, ptr %17, align 4
  call void @_ZN7GLLines7AddLineE6b2Vec2S0_10b2HexColor(ptr noundef nonnull align 8 dereferenceable(40) %52, <2 x float> %54, <2 x float> %55, i32 noundef %53)
  %56 = getelementptr inbounds nuw %class.Draw, ptr %22, i32 0, i32 3
  %57 = load ptr, ptr %56, align 8, !tbaa !32
  call void @llvm.memcpy.p0.p0.i64(ptr align 4 %18, ptr align 4 %11, i64 8, i1 false), !tbaa.struct !17
  call void @llvm.memcpy.p0.p0.i64(ptr align 4 %19, ptr align 4 %8, i64 8, i1 false), !tbaa.struct !17
  %58 = load i32, ptr %7, align 4, !tbaa !27
  %59 = load <2 x float>, ptr %18, align 4
  %60 = load <2 x float>, ptr %19, align 4
  call void @_ZN7GLLines7AddLineE6b2Vec2S0_10b2HexColor(ptr noundef nonnull align 8 dereferenceable(40) %57, <2 x float> %59, <2 x float> %60, i32 noundef %58)
  call void @llvm.lifetime.end.p0(i64 8, ptr %11) #1
  call void @llvm.lifetime.end.p0(i64 8, ptr %10) #1
  call void @llvm.lifetime.end.p0(i64 8, ptr %9) #1
  call void @llvm.lifetime.end.p0(i64 8, ptr %8) #1
  ret void
}