; Function Attrs: mustprogress uwtable
define dso_local void @_ZN4Draw8DrawAABBE6b2AABB10b2HexColor(ptr noundef nonnull readonly align 8 captures(none) dereferenceable(216) %0, <2 x float> %1, <2 x float> %2, i32 noundef %3) local_unnamed_addr #5 align 2 {
  %.sroa.013.4.vec.insert = shufflevector <2 x float> %2, <2 x float> %1, <2 x i32> <i32 0, i32 3>
  %.sroa.08.4.vec.insert = shufflevector <2 x float> %1, <2 x float> %2, <2 x i32> <i32 0, i32 3>
  %5 = getelementptr inbounds nuw i8, ptr %0, i64 24
  %6 = load ptr, ptr %5, align 8, !tbaa !16
  tail call void @_ZN7GLLines7AddLineE6b2Vec2S0_10b2HexColor(ptr noundef nonnull align 8 dereferenceable(40) %6, <2 x float> %1, <2 x float> %.sroa.013.4.vec.insert, i32 noundef %3)
  %7 = load ptr, ptr %5, align 8, !tbaa !16
  tail call void @_ZN7GLLines7AddLineE6b2Vec2S0_10b2HexColor(ptr noundef nonnull align 8 dereferenceable(40) %7, <2 x float> %.sroa.013.4.vec.insert, <2 x float> %2, i32 noundef %3)
  %8 = load ptr, ptr %5, align 8, !tbaa !16
  tail call void @_ZN7GLLines7AddLineE6b2Vec2S0_10b2HexColor(ptr noundef nonnull align 8 dereferenceable(40) %8, <2 x float> %2, <2 x float> %.sroa.08.4.vec.insert, i32 noundef %3)
  %9 = load ptr, ptr %5, align 8, !tbaa !16
  tail call void @_ZN7GLLines7AddLineE6b2Vec2S0_10b2HexColor(ptr noundef nonnull align 8 dereferenceable(40) %9, <2 x float> %.sroa.08.4.vec.insert, <2 x float> %1, i32 noundef %3)
  ret void
}